target datalayout = "e-m:e-p270:32:32-p271:32:32-p272:64:64-i64:64-i128:128-f80:128-n8:16:32:64-S128"
target triple = "x86_64-pc-linux-gnu"

%struct.Qureg = type { i32, i32, i32, i64, i64, i32, i32, %struct.ComplexArray, %struct.ComplexArray, %struct.ComplexArray, ptr, ptr, ptr, ptr, ptr, ptr }
%struct.ComplexArray = type { ptr, ptr }

; Function Attrs: nounwind uwtable
define double @densmatr_calcTotalProb(ptr noundef byval(%struct.Qureg) align 8 %0) #0 {
  %2 = alloca double, align 8
  %3 = alloca double, align 8
  %4 = alloca double, align 8
  %5 = alloca double, align 8
  %6 = alloca i64, align 8
  %7 = alloca i64, align 8
  %8 = alloca i32, align 4
  call void @llvm.lifetime.start.p0(i64 8, ptr %2) #6
  store double 0.000000e+00, ptr %2, align 8, !tbaa !8
  call void @llvm.lifetime.start.p0(i64 8, ptr %3) #6
  call void @llvm.lifetime.start.p0(i64 8, ptr %4) #6
  call void @llvm.lifetime.start.p0(i64 8, ptr %5) #6
  store double 0.000000e+00, ptr %5, align 8, !tbaa !8
  call void @llvm.lifetime.start.p0(i64 8, ptr %6) #6
  %9 = getelementptr inbounds nuw %struct.Qureg, ptr %0, i32 0, i32 1
  %10 = load i32, ptr %9, align 4, !tbaa !21
  %11 = zext i32 %10 to i64
  %12 = shl i64 1, %11
  store i64 %12, ptr %6, align 8, !tbaa !22
  call void @llvm.lifetime.start.p0(i64 8, ptr %7) #6
  call void @llvm.lifetime.start.p0(i64 4, ptr %8) #6
  store i32 0, ptr %8, align 4, !tbaa !4
  br label %13

13:                                               ; preds = %42, %1
  %14 = load i32, ptr %8, align 4, !tbaa !4
  %15 = sext i32 %14 to i64
  %16 = load i64, ptr %6, align 8, !tbaa !22
  %17 = icmp slt i64 %15, %16
  br i1 %17, label %19, label %18

18:                                               ; preds = %13
  call void @llvm.lifetime.end.p0(i64 4, ptr %8) #6
  br label %45

19:                                               ; preds = %13
  %20 = load i32, ptr %8, align 4, !tbaa !4
  %21 = sext i32 %20 to i64
  %22 = load i64, ptr %6, align 8, !tbaa !22
  %23 = add nsw i64 %22, 1
  %24 = mul nsw i64 %21, %23
  store i64 %24, ptr %7, align 8, !tbaa !22
  %25 = getelementptr inbounds nuw %struct.Qureg, ptr %0, i32 0, i32 7
  %26 = getelementptr inbounds nuw %struct.ComplexArray, ptr %25, i32 0, i32 0
  %27 = load ptr, ptr %26, align 8, !tbaa !19
  %28 = load i64, ptr %7, align 8, !tbaa !22
  %29 = getelementptr inbounds double, ptr %27, i64 %28
  %30 = load double, ptr %29, align 8, !tbaa !8
  %31 = load double, ptr %5, align 8, !tbaa !8
  %32 = fsub double %30, %31
  store double %32, ptr %3, align 8, !tbaa !8
  %33 = load double, ptr %2, align 8, !tbaa !8
  %34 = load double, ptr %3, align 8, !tbaa !8
  %35 = fadd double %33, %34
  store double %35, ptr %4, align 8, !tbaa !8
  %36 = load double, ptr %4, align 8, !tbaa !8
  %37 = load double, ptr %2, align 8, !tbaa !8
  %38 = fsub double %36, %37
  %39 = load double, ptr %3, align 8, !tbaa !8
  %40 = fsub double %38, %39
  store double %40, ptr %5, align 8, !tbaa !8
  %41 = load double, ptr %4, align 8, !tbaa !8
  store double %41, ptr %2, align 8, !tbaa !8
  br label %42

42:                                               ; preds = %19
  %43 = load i32, ptr %8, align 4, !tbaa !4
  %44 = add nsw i32 %43, 1
  store i32 %44, ptr %8, align 4, !tbaa !4
  br label %13

45:                                               ; preds = %18
  %46 = load double, ptr %2, align 8, !tbaa !8
  call void @llvm.lifetime.end.p0(i64 8, ptr %7) #6
  call void @llvm.lifetime.end.p0(i64 8, ptr %6) #6
  call void @llvm.lifetime.end.p0(i64 8, ptr %5) #6
  call void @llvm.lifetime.end.p0(i64 8, ptr %4) #6
  call void @llvm.lifetime.end.p0(i64 8, ptr %3) #6
  call void @llvm.lifetime.end.p0(i64 8, ptr %2) #6
  ret double %46
}