; Function Attrs: nofree norecurse nosync nounwind memory(read, inaccessiblemem: none) uwtable
define double @densmatr_calcTotalProb(ptr noundef readonly byval(%struct.Qureg) align 8 captures(none) %0) local_unnamed_addr #4 {
  %2 = getelementptr inbounds nuw i8, ptr %0, i64 4
  %3 = load i32, ptr %2, align 4, !tbaa !18
  %.not = icmp eq i32 %3, 63
  br i1 %.not, label %._crit_edge, label %.lr.ph

.lr.ph:                                           ; preds = %1
  %4 = zext nneg i32 %3 to i64
  %5 = shl nuw i64 1, %4
  %6 = add nuw nsw i64 %5, 1
  %7 = getelementptr inbounds nuw i8, ptr %0, i64 40
  %8 = load ptr, ptr %7, align 8, !tbaa !8
  %smax = tail call i64 @llvm.smax.i64(i64 %5, i64 1)
  br label %9

._crit_edge:                                      ; preds = %9, %1
  %.013.lcssa = phi double [ 0.000000e+00, %1 ], [ %14, %9 ]
  ret double %.013.lcssa

9:                                                ; preds = %.lr.ph, %9
  %indvars.iv = phi i64 [ 0, %.lr.ph ], [ %indvars.iv.next, %9 ]
  %.01318 = phi double [ 0.000000e+00, %.lr.ph ], [ %14, %9 ]
  %.01417 = phi double [ 0.000000e+00, %.lr.ph ], [ %16, %9 ]
  %10 = mul nsw i64 %indvars.iv, %6
  %11 = getelementptr inbounds double, ptr %8, i64 %10
  %12 = load double, ptr %11, align 8, !tbaa !19
  %13 = fsub double %12, %.01417
  %14 = fadd double %.01318, %13
  %15 = fsub double %14, %.01318
  %16 = fsub double %15, %13
  %indvars.iv.next = add nuw nsw i64 %indvars.iv, 1
  %exitcond.not = icmp eq i64 %indvars.iv.next, %smax
  br i1 %exitcond.not, label %._crit_edge, label %9
}